; Function Attrs: mustprogress uwtable
define hidden noundef zeroext i1 @_ZNK7datalog13udoc_relation5emptyEv(ptr noundef nonnull readonly align 8 captures(none) dereferenceable(128) %0) unnamed_addr #3 align 2 {
  %2 = getelementptr inbounds nuw i8, ptr %0, i64 40
  %3 = getelementptr inbounds nuw i8, ptr %0, i64 8
  %4 = load ptr, ptr %3, align 8, !tbaa !167
  %5 = getelementptr inbounds nuw i8, ptr %4, i64 40
  %6 = load ptr, ptr %5, align 8, !tbaa !66
  %7 = getelementptr inbounds nuw i8, ptr %0, i64 32
  %8 = load ptr, ptr %7, align 8, !tbaa !144
  %9 = getelementptr inbounds nuw i8, ptr %0, i64 48
  %10 = load i32, ptr %9, align 8, !tbaa !35
  %11 = icmp eq i32 %10, 0
  br i1 %11, label %_ZNK10union_bvecI11doc_manager3docE17is_empty_completeER11ast_managerRS0_.exit, label %.lr.ph.i

12:                                               ; preds = %.lr.ph.i
  %indvars.iv.next.i = add nuw nsw i64 %indvars.iv.i, 1
  %13 = load i32, ptr %9, align 8, !tbaa !35
  %14 = zext i32 %13 to i64
  %.not.i = icmp samesign ult i64 %indvars.iv.next.i, %14
  br i1 %.not.i, label %.lr.ph.i, label %_ZNK10union_bvecI11doc_manager3docE17is_empty_completeER11ast_managerRS0_.exit, !llvm.loop !185

.lr.ph.i:                                         ; preds = %1, %12
  %indvars.iv.i = phi i64 [ %indvars.iv.next.i, %12 ], [ 0, %1 ]
  %15 = load ptr, ptr %2, align 8, !tbaa !32
  %16 = getelementptr inbounds nuw ptr, ptr %15, i64 %indvars.iv.i
  %17 = load ptr, ptr %16, align 8, !tbaa !148
  %18 = tail call noundef zeroext i1 @_ZN11doc_manager17is_empty_completeER11ast_managerRK3doc(ptr noundef nonnull align 8 dereferenceable(1080) %8, ptr noundef nonnull align 8 dereferenceable(976) %6, ptr noundef nonnull align 8 dereferenceable(88) %17)
  br i1 %18, label %12, label %_ZNK10union_bvecI11doc_manager3docE17is_empty_completeER11ast_managerRS0_.exit

_ZNK10union_bvecI11doc_manager3docE17is_empty_completeER11ast_managerRS0_.exit: ; preds = %12, %.lr.ph.i, %1
  %.lcssa.i = phi i1 [ true, %1 ], [ %18, %.lr.ph.i ], [ %18, %12 ]
  ret i1 %.lcssa.i
}